; Function Attrs: mustprogress uwtable
define hidden void @_ZN2cv2ml10DTreesImpl4readERKNS_8FileNodeE(ptr noundef nonnull align 8 dereferenceable(448) %0, ptr noundef nonnull align 8 dereferenceable(24) %1) unnamed_addr #3 align 2 personality ptr @__gxx_personality_v0 {
  %3 = alloca %"class.cv::FileNode", align 8
  %4 = alloca %"class.std::__cxx11::basic_string", align 8
  %5 = alloca %"class.std::allocator.15", align 1
  %6 = load ptr, ptr %0, align 8, !tbaa !53
  %7 = getelementptr inbounds nuw i8, ptr %6, i64 16
  %8 = load ptr, ptr %7, align 8
  tail call void %8(ptr noundef nonnull align 8 dereferenceable(448) %0)
  %9 = load ptr, ptr %0, align 8, !tbaa !53
  %10 = getelementptr inbounds nuw i8, ptr %9, i64 488
  %11 = load ptr, ptr %10, align 8
  tail call void %11(ptr noundef nonnull align 8 dereferenceable(448) %0, ptr noundef nonnull align 8 dereferenceable(24) %1)
  call void @llvm.lifetime.start.p0(i64 24, ptr nonnull %3) #26
  call void @_ZNK2cv8FileNodeixEPKc(ptr dead_on_unwind nonnull writable sret(%"class.cv::FileNode") align 8 %3, ptr noundef nonnull align 8 dereferenceable(24) %1, ptr noundef nonnull @.str.59)
  %12 = call noundef zeroext i1 @_ZNK2cv8FileNode5emptyEv(ptr noundef nonnull align 8 dereferenceable(24) %3)
  br i1 %12, label %13, label %23

13:                                               ; preds = %2
  call void @llvm.lifetime.start.p0(i64 32, ptr nonnull %4) #26
  call void @llvm.lifetime.start.p0(i64 1, ptr nonnull %5) #26
  call void @_ZNSt7__cxx1112basic_stringIcSt11char_traitsIcESaIcEEC2EPKcRKS3_(ptr noundef nonnull align 8 dereferenceable(32) %4, ptr noundef nonnull @.str.68, ptr noundef nonnull align 1 dereferenceable(1) %5)
  invoke void @_ZN2cv5errorEiRKNSt7__cxx1112basic_stringIcSt11char_traitsIcESaIcEEEPKcS9_i(i32 noundef -215, ptr noundef nonnull align 8 dereferenceable(32) %4, ptr noundef nonnull @__func__._ZN2cv2ml10DTreesImpl4readERKNS_8FileNodeE, ptr noundef nonnull @.str.1, i32 noundef 1972) #27
          to label %14 unwind label %15

14:                                               ; preds = %13
  unreachable

15:                                               ; preds = %13
  %16 = landingpad { ptr, i32 }
          cleanup
  %17 = load ptr, ptr %4, align 8, !tbaa !42
  %18 = getelementptr inbounds nuw i8, ptr %4, i64 16
  %19 = icmp eq ptr %17, %18
  br i1 %19, label %_ZNKSt7__cxx1112basic_stringIcSt11char_traitsIcESaIcEE11_M_is_localEv.exit.thread.i.i, label %_ZNKSt7__cxx1112basic_stringIcSt11char_traitsIcESaIcEE11_M_is_localEv.exit.i.i

_ZNKSt7__cxx1112basic_stringIcSt11char_traitsIcESaIcEE11_M_is_localEv.exit.thread.i.i: ; preds = %15
  %20 = getelementptr inbounds nuw i8, ptr %4, i64 8
  %21 = load i64, ptr %20, align 8, !tbaa !46
  %22 = icmp ult i64 %21, 16
  call void @llvm.assume(i1 %22)
  br label %_ZNSt7__cxx1112basic_stringIcSt11char_traitsIcESaIcEED2Ev.exit

_ZNKSt7__cxx1112basic_stringIcSt11char_traitsIcESaIcEE11_M_is_localEv.exit.i.i: ; preds = %15
  call void @_ZdlPv(ptr noundef %17) #28
  br label %_ZNSt7__cxx1112basic_stringIcSt11char_traitsIcESaIcEED2Ev.exit

_ZNSt7__cxx1112basic_stringIcSt11char_traitsIcESaIcEED2Ev.exit: ; preds = %_ZNKSt7__cxx1112basic_stringIcSt11char_traitsIcESaIcEE11_M_is_localEv.exit.i.i, %_ZNKSt7__cxx1112basic_stringIcSt11char_traitsIcESaIcEE11_M_is_localEv.exit.thread.i.i
  call void @llvm.lifetime.end.p0(i64 1, ptr nonnull %5) #26
  call void @llvm.lifetime.end.p0(i64 32, ptr nonnull %4) #26
  call void @llvm.lifetime.end.p0(i64 24, ptr nonnull %3) #26
  resume { ptr, i32 } %16

23:                                               ; preds = %2
  %24 = load ptr, ptr %0, align 8, !tbaa !53
  %25 = getelementptr inbounds nuw i8, ptr %24, i64 512
  %26 = load ptr, ptr %25, align 8
  %27 = call noundef i32 %26(ptr noundef nonnull align 8 dereferenceable(448) %0, ptr noundef nonnull align 8 dereferenceable(24) %3)
  call void @llvm.lifetime.end.p0(i64 24, ptr nonnull %3) #26
  ret void
}